; Function Attrs: nounwind uwtable
define hidden void @zim_PhpToken___toString(ptr nocapture noundef readonly %0, ptr nocapture noundef writeonly %1) #0 {
  %3 = getelementptr inbounds i8, ptr %0, i64 44
  %4 = load i32, ptr %3, align 4
  %.not = icmp eq i32 %4, 0
  br i1 %.not, label %6, label %5

5:                                                ; preds = %2
  tail call void @zend_wrong_parameters_none_error() #10
  br label %28

6:                                                ; preds = %2
  %7 = getelementptr inbounds i8, ptr %0, i64 32
  %.val = load ptr, ptr %7, align 8
  %8 = getelementptr inbounds i8, ptr %.val, i64 56
  %9 = getelementptr inbounds i8, ptr %.val, i64 64
  %10 = load i8, ptr %9, align 8
  switch i8 %10, label %php_token_get_text.exit [
    i8 0, label %php_token_get_text.exit.thread
    i8 10, label %11
  ]

php_token_get_text.exit.thread:                   ; preds = %6
  tail call void (ptr, ptr, ...) @zend_throw_error(ptr noundef null, ptr noundef nonnull @.str.16) #10
  br label %15

11:                                               ; preds = %6
  %12 = load ptr, ptr %8, align 8
  %13 = getelementptr inbounds i8, ptr %12, i64 8
  br label %php_token_get_text.exit

php_token_get_text.exit:                          ; preds = %6, %11
  %.0.i = phi ptr [ %13, %11 ], [ %8, %6 ]
  %14 = load ptr, ptr %.0.i, align 8
  %.not12 = icmp eq ptr %14, null
  br i1 %.not12, label %15, label %18

15:                                               ; preds = %php_token_get_text.exit.thread, %php_token_get_text.exit
  %16 = load ptr, ptr getelementptr inbounds (%struct._zend_executor_globals, ptr @executor_globals, i64 0, i32 50), align 8
  %17 = icmp ne ptr %16, null
  tail call void @llvm.assume(i1 %17)
  br label %28

18:                                               ; preds = %php_token_get_text.exit
  store ptr %14, ptr %1, align 8
  %19 = getelementptr inbounds i8, ptr %14, i64 4
  %20 = load i32, ptr %19, align 4
  %21 = and i32 %20, 64
  %.not13 = icmp eq i32 %21, 0
  br i1 %.not13, label %24, label %22

22:                                               ; preds = %18
  %23 = getelementptr inbounds i8, ptr %1, i64 8
  store i32 6, ptr %23, align 8
  br label %28

24:                                               ; preds = %18
  %25 = load i32, ptr %14, align 4
  %26 = add i32 %25, 1
  store i32 %26, ptr %14, align 4
  %27 = getelementptr inbounds i8, ptr %1, i64 8
  store i32 262, ptr %27, align 8
  br label %28

28:                                               ; preds = %24, %22, %15, %5
  ret void
}